target datalayout = "e-m:e-p270:32:32-p271:32:32-p272:64:64-i64:64-i128:128-f80:128-n8:16:32:64-S128"
target triple = "x86_64-pc-linux-gnu"

%"struct.std::atomic" = type { %"struct.std::__atomic_base" }
%"struct.std::__atomic_base" = type { i64 }
%struct.mi_memid_s = type { %union.anon, i8, i8, i8, i32 }
%union.anon = type { %struct.mi_memid_os_info }
%struct.mi_memid_os_info = type { ptr, i64 }

@.str.18 = private unnamed_addr constant [38 x i8] c"failed to reserve %zu GiB huge pages\0A\00", align 1
@.str.19 = private unnamed_addr constant [70 x i8] c"numa node %i: reserved %zu GiB huge pages (of the %zu GiB requested)\0A\00", align 1
@_mi_numa_node_count = hidden global %"struct.std::atomic" zeroinitializer, align 8

; Function Attrs: mustprogress nounwind uwtable
define linkonce_odr noundef i32 @_ZStanSt12memory_orderSt23__memory_order_modifier(i32 noundef %0, i32 noundef %1) #5 comdat {
  %3 = alloca i32, align 4
  %4 = alloca i32, align 4
  store i32 %0, ptr %3, align 4, !tbaa !32
  store i32 %1, ptr %4, align 4, !tbaa !428
  %5 = load i32, ptr %3, align 4, !tbaa !32
  %6 = load i32, ptr %4, align 4, !tbaa !428
  %7 = and i32 %5, %6
  ret i32 %7
}

; Function Attrs: alwaysinline mustprogress nounwind uwtable
define linkonce_odr hidden noundef i64 @_ZNKSt13__atomic_baseImE4loadESt12memory_order(ptr noundef nonnull align 8 dereferenceable(8) %0, i32 noundef %1) #17 comdat align 2 {
  %3 = alloca ptr, align 8
  %4 = alloca i32, align 4
  %5 = alloca i32, align 4
  %6 = alloca i64, align 8
  store ptr %0, ptr %3, align 8, !tbaa !164
  store i32 %1, ptr %4, align 4, !tbaa !32
  %7 = load ptr, ptr %3, align 8
  call void @llvm.lifetime.start.p0(i64 4, ptr %5) #19
  %8 = load i32, ptr %4, align 4, !tbaa !32
  %9 = call noundef i32 @_ZStanSt12memory_orderSt23__memory_order_modifier(i32 noundef %8, i32 noundef 65535)
  store i32 %9, ptr %5, align 4, !tbaa !32
  br label %10

10:                                               ; preds = %2
  br label %11

11:                                               ; preds = %10
  br label %12

12:                                               ; preds = %11
  br label %13

13:                                               ; preds = %12
  br label %14

14:                                               ; preds = %13
  br label %15

15:                                               ; preds = %14
  %16 = getelementptr inbounds nuw %"struct.std::__atomic_base", ptr %7, i32 0, i32 0
  %17 = load i32, ptr %4, align 4, !tbaa !32
  switch i32 %17, label %18 [
    i32 1, label %20
    i32 2, label %20
    i32 5, label %22
  ]

18:                                               ; preds = %15
  %19 = load atomic i64, ptr %16 monotonic, align 8
  store i64 %19, ptr %6, align 8
  br label %24

20:                                               ; preds = %15, %15
  %21 = load atomic i64, ptr %16 acquire, align 8
  store i64 %21, ptr %6, align 8
  br label %24

22:                                               ; preds = %15
  %23 = load atomic i64, ptr %16 seq_cst, align 8
  store i64 %23, ptr %6, align 8
  br label %24

24:                                               ; preds = %22, %20, %18
  %25 = load i64, ptr %6, align 8, !tbaa !18
  call void @llvm.lifetime.end.p0(i64 4, ptr %5) #19
  ret i64 %25
}

; Function Attrs: inlinehint mustprogress nounwind uwtable
define linkonce_odr noundef i64 @_ZSt20atomic_load_explicitImET_PKSt6atomicIS0_ESt12memory_order(ptr noundef %0, i32 noundef %1) #3 comdat {
  %3 = alloca ptr, align 8
  %4 = alloca i32, align 4
  store ptr %0, ptr %3, align 8, !tbaa !30
  store i32 %1, ptr %4, align 4, !tbaa !32
  %5 = load ptr, ptr %3, align 8, !tbaa !30
  %6 = load i32, ptr %4, align 4, !tbaa !32
  %7 = call noundef i64 @_ZNKSt13__atomic_baseImE4loadESt12memory_order(ptr noundef nonnull align 8 dereferenceable(8) %5, i32 noundef %6) #19
  ret i64 %7
}

; Function Attrs: mustprogress uwtable
define hidden void @_Z11_mi_os_freePvm10mi_memid_s(ptr noundef %0, i64 noundef %1, ptr noundef byval(%struct.mi_memid_s) align 8 %2) #0 {
  %4 = alloca ptr, align 8
  %5 = alloca i64, align 8
  %6 = alloca %struct.mi_memid_s, align 8
  store ptr %0, ptr %4, align 8, !tbaa !8
  store i64 %1, ptr %5, align 8, !tbaa !18
  %7 = load ptr, ptr %4, align 8, !tbaa !8
  %8 = load i64, ptr %5, align 8, !tbaa !18
  call void @llvm.memcpy.p0.p0.i64(ptr align 8 %6, ptr align 8 %2, i64 24, i1 false), !tbaa.struct !74
  call void @_Z14_mi_os_free_exPvmb10mi_memid_s(ptr noundef %7, i64 noundef %8, i1 noundef zeroext true, ptr noundef byval(%struct.mi_memid_s) align 8 %6)
  ret void
}

; Function Attrs: inlinehint mustprogress uwtable
define internal noundef i64 @_ZL22_mi_os_numa_node_countv() #6 {
  %1 = alloca i64, align 8
  %2 = alloca i64, align 8
  %3 = alloca i32, align 4
  call void @llvm.lifetime.start.p0(i64 8, ptr %2) #19
  %4 = call noundef i64 @_ZSt20atomic_load_explicitImET_PKSt6atomicIS0_ESt12memory_order(ptr noundef @_mi_numa_node_count, i32 noundef 0) #19
  store i64 %4, ptr %2, align 8, !tbaa !18
  %5 = load i64, ptr %2, align 8, !tbaa !18
  %6 = icmp ugt i64 %5, 0
  %7 = xor i1 %6, true
  %8 = xor i1 %7, true
  %9 = zext i1 %8 to i64
  %10 = call i64 @llvm.expect.i64(i64 %9, i64 1)
  %11 = icmp ne i64 %10, 0
  br i1 %11, label %12, label %14

12:                                               ; preds = %0
  %13 = load i64, ptr %2, align 8, !tbaa !18
  store i64 %13, ptr %1, align 8
  store i32 1, ptr %3, align 4
  br label %16

14:                                               ; preds = %0
  %15 = call noundef i64 @_Z26_mi_os_numa_node_count_getv()
  store i64 %15, ptr %1, align 8
  store i32 1, ptr %3, align 4
  br label %16

16:                                               ; preds = %14, %12
  call void @llvm.lifetime.end.p0(i64 8, ptr %2) #19
  %17 = load i64, ptr %1, align 8
  ret i64 %17
}

; Function Attrs: mustprogress nounwind uwtable
define i32 @mi_reserve_huge_os_pages_at_ex(i64 noundef %0, i32 noundef %1, i64 noundef %2, i1 noundef zeroext %3, ptr noundef %4) #5 personality ptr @__gxx_personality_v0 {
  %6 = alloca i32, align 4
  %7 = alloca i64, align 8
  %8 = alloca i32, align 4
  %9 = alloca i64, align 8
  %10 = alloca i8, align 1
  %11 = alloca ptr, align 8
  %12 = alloca i64, align 8
  %13 = alloca i64, align 8
  %14 = alloca %struct.mi_memid_s, align 8
  %15 = alloca ptr, align 8
  %16 = alloca i32, align 4
  %17 = alloca %struct.mi_memid_s, align 8
  %18 = alloca %struct.mi_memid_s, align 8
  store i64 %0, ptr %7, align 8, !tbaa !18
  store i32 %1, ptr %8, align 4, !tbaa !58
  store i64 %2, ptr %9, align 8, !tbaa !18
  %19 = zext i1 %3 to i8
  store i8 %19, ptr %10, align 1, !tbaa !23
  store ptr %4, ptr %11, align 8, !tbaa !131
  %20 = load ptr, ptr %11, align 8, !tbaa !131
  %21 = icmp ne ptr %20, null
  br i1 %21, label %22, label %24

22:                                               ; preds = %5
  %23 = load ptr, ptr %11, align 8, !tbaa !131
  store i32 -1, ptr %23, align 4, !tbaa !58
  br label %24

24:                                               ; preds = %22, %5
  %25 = load i64, ptr %7, align 8, !tbaa !18
  %26 = icmp eq i64 %25, 0
  br i1 %26, label %27, label %28

27:                                               ; preds = %24
  store i32 0, ptr %6, align 4
  br label %74

28:                                               ; preds = %24
  %29 = load i32, ptr %8, align 4, !tbaa !58
  %30 = icmp slt i32 %29, -1
  br i1 %30, label %31, label %32

31:                                               ; preds = %28
  store i32 -1, ptr %8, align 4, !tbaa !58
  br label %32

32:                                               ; preds = %31, %28
  %33 = load i32, ptr %8, align 4, !tbaa !58
  %34 = icmp sge i32 %33, 0
  br i1 %34, label %35, label %42

35:                                               ; preds = %32
  %36 = load i32, ptr %8, align 4, !tbaa !58
  %37 = sext i32 %36 to i64
  %38 = invoke noundef i64 @_ZL22_mi_os_numa_node_countv()
          to label %39 unwind label %76

39:                                               ; preds = %35
  %40 = urem i64 %37, %38
  %41 = trunc i64 %40 to i32
  store i32 %41, ptr %8, align 4, !tbaa !58
  br label %42

42:                                               ; preds = %39, %32
  call void @llvm.lifetime.start.p0(i64 8, ptr %12) #19
  store i64 0, ptr %12, align 8, !tbaa !18
  call void @llvm.lifetime.start.p0(i64 8, ptr %13) #19
  store i64 0, ptr %13, align 8, !tbaa !18
  call void @llvm.lifetime.start.p0(i64 24, ptr %14) #19
  call void @llvm.lifetime.start.p0(i64 8, ptr %15) #19
  %43 = load i64, ptr %7, align 8, !tbaa !18
  %44 = load i32, ptr %8, align 4, !tbaa !58
  %45 = load i64, ptr %9, align 8, !tbaa !18
  %46 = invoke noundef ptr @_Z26_mi_os_alloc_huge_os_pagesmilPmS_P10mi_memid_s(i64 noundef %43, i32 noundef %44, i64 noundef %45, ptr noundef %13, ptr noundef %12, ptr noundef %14)
          to label %47 unwind label %76

47:                                               ; preds = %42
  store ptr %46, ptr %15, align 8, !tbaa !8
  %48 = load ptr, ptr %15, align 8, !tbaa !8
  %49 = icmp eq ptr %48, null
  br i1 %49, label %53, label %50

50:                                               ; preds = %47
  %51 = load i64, ptr %13, align 8, !tbaa !18
  %52 = icmp eq i64 %51, 0
  br i1 %52, label %53, label %56

53:                                               ; preds = %50, %47
  %54 = load i64, ptr %7, align 8, !tbaa !18
  invoke void (ptr, ...) @_Z19_mi_warning_messagePKcz(ptr noundef @.str.18, i64 noundef %54)
          to label %55 unwind label %76

55:                                               ; preds = %53
  store i32 12, ptr %6, align 4
  store i32 1, ptr %16, align 4
  br label %73

56:                                               ; preds = %50
  %57 = load i32, ptr %8, align 4, !tbaa !58
  %58 = load i64, ptr %13, align 8, !tbaa !18
  %59 = load i64, ptr %7, align 8, !tbaa !18
  invoke void (ptr, ...) @_Z19_mi_verbose_messagePKcz(ptr noundef @.str.19, i32 noundef %57, i64 noundef %58, i64 noundef %59)
          to label %60 unwind label %76

60:                                               ; preds = %56
  %61 = load ptr, ptr %15, align 8, !tbaa !8
  %62 = load i64, ptr %12, align 8, !tbaa !18
  %63 = load i32, ptr %8, align 4, !tbaa !58
  %64 = load i8, ptr %10, align 1, !tbaa !23, !range !25, !noundef !26
  %65 = trunc i8 %64 to i1
  call void @llvm.memcpy.p0.p0.i64(ptr align 8 %17, ptr align 8 %14, i64 24, i1 false), !tbaa.struct !74
  %66 = load ptr, ptr %11, align 8, !tbaa !131
  %67 = call noundef zeroext i1 @_ZL23mi_manage_os_memory_ex2Pvmbib10mi_memid_sPi(ptr noundef %61, i64 noundef %62, i1 noundef zeroext true, i32 noundef %63, i1 noundef zeroext %65, ptr noundef byval(%struct.mi_memid_s) align 8 %17, ptr noundef %66) #19
  br i1 %67, label %72, label %68

68:                                               ; preds = %60
  %69 = load ptr, ptr %15, align 8, !tbaa !8
  %70 = load i64, ptr %12, align 8, !tbaa !18
  call void @llvm.memcpy.p0.p0.i64(ptr align 8 %18, ptr align 8 %14, i64 24, i1 false), !tbaa.struct !74
  invoke void @_Z11_mi_os_freePvm10mi_memid_s(ptr noundef %69, i64 noundef %70, ptr noundef byval(%struct.mi_memid_s) align 8 %18)
          to label %71 unwind label %76

71:                                               ; preds = %68
  store i32 12, ptr %6, align 4
  store i32 1, ptr %16, align 4
  br label %73

72:                                               ; preds = %60
  store i32 0, ptr %6, align 4
  store i32 1, ptr %16, align 4
  br label %73

73:                                               ; preds = %72, %71, %55
  call void @llvm.lifetime.end.p0(i64 8, ptr %15) #19
  call void @llvm.lifetime.end.p0(i64 24, ptr %14) #19
  call void @llvm.lifetime.end.p0(i64 8, ptr %13) #19
  call void @llvm.lifetime.end.p0(i64 8, ptr %12) #19
  br label %74

74:                                               ; preds = %73, %27
  %75 = load i32, ptr %6, align 4
  ret i32 %75

76:                                               ; preds = %68, %56, %53, %42, %35
  %77 = landingpad { ptr, i32 }
          catch ptr null
  %78 = extractvalue { ptr, i32 } %77, 0
  call void @__clang_call_terminate(ptr %78) #20
  unreachable
}