; Function Attrs: mustprogress nounwind uwtable
define range(i32 0, 13) i32 @mi_reserve_huge_os_pages_at_ex(i64 noundef %0, i32 noundef %1, i64 noundef %2, i1 noundef zeroext %3, ptr noundef writeonly captures(address_is_null) %4) local_unnamed_addr #3 personality ptr @__gxx_personality_v0 {
  %6 = alloca i64, align 8
  %7 = alloca i64, align 8
  %8 = alloca %struct.mi_memid_s, align 8
  %.not = icmp eq ptr %4, null
  br i1 %.not, label %10, label %9

9:                                                ; preds = %5
  store i32 -1, ptr %4, align 4, !tbaa !66
  br label %10

10:                                               ; preds = %9, %5
  %11 = icmp eq i64 %0, 0
  br i1 %11, label %33, label %12

12:                                               ; preds = %10
  %spec.store.select = tail call i32 @llvm.smax.i32(i32 %1, i32 -1)
  %13 = icmp sgt i32 %1, -1
  br i1 %13, label %14, label %21

14:                                               ; preds = %12
  %15 = load atomic i64, ptr @_mi_numa_node_count monotonic, align 8
  %.not.i = icmp eq i64 %15, 0
  br i1 %.not.i, label %16, label %_ZL22_mi_os_numa_node_countv.exit, !prof !17

16:                                               ; preds = %14
  %17 = invoke noundef i64 @_Z26_mi_os_numa_node_count_getv()
          to label %_ZL22_mi_os_numa_node_countv.exit unwind label %34

_ZL22_mi_os_numa_node_countv.exit:                ; preds = %14, %16
  %.0.i = phi i64 [ %15, %14 ], [ %17, %16 ]
  %18 = zext nneg i32 %spec.store.select to i64
  %19 = urem i64 %18, %.0.i
  %20 = trunc nuw nsw i64 %19 to i32
  br label %21

21:                                               ; preds = %_ZL22_mi_os_numa_node_countv.exit, %12
  %.019 = phi i32 [ %20, %_ZL22_mi_os_numa_node_countv.exit ], [ %spec.store.select, %12 ]
  call void @llvm.lifetime.start.p0(i64 8, ptr nonnull %6) #55
  store i64 0, ptr %6, align 8, !tbaa !69
  call void @llvm.lifetime.start.p0(i64 8, ptr nonnull %7) #55
  store i64 0, ptr %7, align 8, !tbaa !69
  %22 = invoke noundef ptr @_Z26_mi_os_alloc_huge_os_pagesmilPmS_P10mi_memid_s(i64 noundef %0, i32 noundef %.019, i64 noundef %2, ptr noundef nonnull %7, ptr noundef nonnull %6, ptr noundef nonnull %8)
          to label %23 unwind label %34

23:                                               ; preds = %21
  %24 = icmp eq ptr %22, null
  %25 = load i64, ptr %7, align 8
  %26 = icmp eq i64 %25, 0
  %or.cond = select i1 %24, i1 true, i1 %26
  br i1 %or.cond, label %27, label %28

27:                                               ; preds = %23
  invoke void (ptr, ...) @_Z19_mi_warning_messagePKcz(ptr noundef nonnull @.str.18, i64 noundef %0)
          to label %_Z11_mi_os_freePvm10mi_memid_s.exit unwind label %34

28:                                               ; preds = %23
  invoke void (ptr, ...) @_Z19_mi_verbose_messagePKcz(ptr noundef nonnull @.str.19, i32 noundef %.019, i64 noundef %25, i64 noundef %0)
          to label %29 unwind label %34

29:                                               ; preds = %28
  %30 = load i64, ptr %6, align 8, !tbaa !69
  %31 = call fastcc noundef zeroext i1 @_ZL23mi_manage_os_memory_ex2Pvmbib10mi_memid_sPi(ptr noundef nonnull %22, i64 noundef %30, i1 noundef zeroext true, i32 noundef %.019, i1 noundef zeroext %3, ptr noundef nonnull byval(%struct.mi_memid_s) align 8 %8, ptr noundef %4) #55
  br i1 %31, label %_Z11_mi_os_freePvm10mi_memid_s.exit, label %32

32:                                               ; preds = %29
  invoke void @_Z14_mi_os_free_exPvmb10mi_memid_s(ptr noundef nonnull %22, i64 poison, i1 noundef zeroext true, ptr noundef nonnull byval(%struct.mi_memid_s) align 8 %8)
          to label %_Z11_mi_os_freePvm10mi_memid_s.exit unwind label %34

_Z11_mi_os_freePvm10mi_memid_s.exit:              ; preds = %32, %29, %27
  %.1 = phi i32 [ 12, %27 ], [ 0, %29 ], [ 12, %32 ]
  call void @llvm.lifetime.end.p0(i64 8, ptr nonnull %7) #55
  call void @llvm.lifetime.end.p0(i64 8, ptr nonnull %6) #55
  br label %33

33:                                               ; preds = %10, %_Z11_mi_os_freePvm10mi_memid_s.exit
  %.0 = phi i32 [ %.1, %_Z11_mi_os_freePvm10mi_memid_s.exit ], [ 0, %10 ]
  ret i32 %.0

34:                                               ; preds = %32, %16, %28, %27, %21
  %35 = landingpad { ptr, i32 }
          catch ptr null
  %36 = extractvalue { ptr, i32 } %35, 0
  call void @__clang_call_terminate(ptr %36) #56
  unreachable
}